target datalayout = "e-m:e-p270:32:32-p271:32:32-p272:64:64-i64:64-i128:128-f80:128-n8:16:32:64-S128"
target triple = "x86_64-pc-linux-gnu"

%"class.open3d::utility::Timer" = type { double, double }
%"class.std::chrono::duration" = type { double }
%"class.std::chrono::duration.0" = type { i64 }
%"class.std::chrono::time_point" = type { %"class.std::chrono::duration.0" }
%"class.std::__cxx11::basic_string" = type { %"struct.std::__cxx11::basic_string<char>::_Alloc_hider", i64, %union.anon }
%"struct.std::__cxx11::basic_string<char>::_Alloc_hider" = type { ptr }
%union.anon = type { i64, [8 x i8] }
%"class.open3d::utility::FPSTimer" = type <{ %"class.open3d::utility::Timer", %"class.std::__cxx11::basic_string", i32, [4 x i8], double, i32, i32, i32, [4 x i8] }>

@.str = private unnamed_addr constant [120 x i8] c"generated/home/dtcxzyw/WorkSpace/Projects/compilers/llvm-opt-benchmark/bench/open3d/Open3D/cpp/open3d/utility/Timer.cpp\00", align 1
@__PRETTY_FUNCTION__._ZN6open3d7utility8FPSTimer6SignalEv = private unnamed_addr constant [41 x i8] c"void open3d::utility::FPSTimer::Signal()\00", align 1
@.str.50 = private unnamed_addr constant [18 x i8] c"{} at {:.2f} fps.\00", align 1
@.str.51 = private unnamed_addr constant [37 x i8] c"{} at {:.2f} fps (progress {:.2f}%).\00", align 1

; Function Attrs: mustprogress nounwind ssp uwtable
define linkonce_odr void @_ZNSt6chrono8durationIdSt5ratioILl1ELl1000EEEC2IdvEERKT_(ptr noundef nonnull align 8 dereferenceable(8) %0, ptr noundef nonnull align 8 dereferenceable(8) %1) unnamed_addr #0 comdat align 2 {
  %3 = alloca ptr, align 8
  %4 = alloca ptr, align 8
  store ptr %0, ptr %3, align 8, !tbaa !18
  store ptr %1, ptr %4, align 8, !tbaa !27
  %5 = load ptr, ptr %3, align 8
  %6 = getelementptr inbounds nuw %"class.std::chrono::duration", ptr %5, i32 0, i32 0
  %7 = load ptr, ptr %4, align 8, !tbaa !27
  %8 = load double, ptr %7, align 8, !tbaa !24
  store double %8, ptr %6, align 8, !tbaa !22
  ret void
}

; Function Attrs: mustprogress nounwind ssp uwtable
define linkonce_odr noundef i64 @_ZNKSt6chrono8durationIlSt5ratioILl1ELl1000000000EEE5countEv(ptr noundef nonnull align 8 dereferenceable(8) %0) #0 comdat align 2 {
  %2 = alloca ptr, align 8
  store ptr %0, ptr %2, align 8, !tbaa !20
  %3 = load ptr, ptr %2, align 8
  %4 = getelementptr inbounds nuw %"class.std::chrono::duration.0", ptr %3, i32 0, i32 0
  %5 = load i64, ptr %4, align 8, !tbaa !25
  ret i64 %5
}

; Function Attrs: mustprogress ssp uwtable
define linkonce_odr double @_ZNSt6chrono20__duration_cast_implINS_8durationIdSt5ratioILl1ELl1000EEEES2_ILl1ELl1000000EEdLb1ELb0EE6__castIlS2_ILl1ELl1000000000EEEES4_RKNS1_IT_T0_EE(ptr noundef nonnull align 8 dereferenceable(8) %0) #1 comdat align 2 {
  %2 = alloca %"class.std::chrono::duration", align 8
  %3 = alloca ptr, align 8
  %4 = alloca double, align 8
  store ptr %0, ptr %3, align 8, !tbaa !20
  call void @llvm.lifetime.start.p0(i64 8, ptr %4) #25
  %5 = load ptr, ptr %3, align 8, !tbaa !20
  %6 = call noundef i64 @_ZNKSt6chrono8durationIlSt5ratioILl1ELl1000000000EEE5countEv(ptr noundef nonnull align 8 dereferenceable(8) %5)
  %7 = sitofp i64 %6 to double
  %8 = fdiv double %7, 1.000000e+06
  store double %8, ptr %4, align 8, !tbaa !24
  call void @_ZNSt6chrono8durationIdSt5ratioILl1ELl1000EEEC2IdvEERKT_(ptr noundef nonnull align 8 dereferenceable(8) %2, ptr noundef nonnull align 8 dereferenceable(8) %4)
  call void @llvm.lifetime.end.p0(i64 8, ptr %4) #25
  %9 = getelementptr inbounds nuw %"class.std::chrono::duration", ptr %2, i32 0, i32 0
  %10 = load double, ptr %9, align 8
  ret double %10
}

; Function Attrs: mustprogress ssp uwtable
define linkonce_odr double @_ZNSt6chrono13duration_castINS_8durationIdSt5ratioILl1ELl1000EEEElS2_ILl1ELl1000000000EEEENSt9enable_ifIXsr13__is_durationIT_EE5valueES7_E4typeERKNS1_IT0_T1_EE(ptr noundef nonnull align 8 dereferenceable(8) %0) #1 comdat {
  %2 = alloca %"class.std::chrono::duration", align 8
  %3 = alloca ptr, align 8
  store ptr %0, ptr %3, align 8, !tbaa !20
  %4 = load ptr, ptr %3, align 8, !tbaa !20
  %5 = call double @_ZNSt6chrono20__duration_cast_implINS_8durationIdSt5ratioILl1ELl1000EEEES2_ILl1ELl1000000EEdLb1ELb0EE6__castIlS2_ILl1ELl1000000000EEEES4_RKNS1_IT_T0_EE(ptr noundef nonnull align 8 dereferenceable(8) %4)
  %6 = getelementptr inbounds nuw %"class.std::chrono::duration", ptr %2, i32 0, i32 0
  store double %5, ptr %6, align 8
  %7 = getelementptr inbounds nuw %"class.std::chrono::duration", ptr %2, i32 0, i32 0
  %8 = load double, ptr %7, align 8
  ret double %8
}

; Function Attrs: mustprogress nounwind ssp uwtable
define linkonce_odr noundef double @_ZNKSt6chrono8durationIdSt5ratioILl1ELl1000EEE5countEv(ptr noundef nonnull align 8 dereferenceable(8) %0) #0 comdat align 2 {
  %2 = alloca ptr, align 8
  store ptr %0, ptr %2, align 8, !tbaa !18
  %3 = load ptr, ptr %2, align 8
  %4 = getelementptr inbounds nuw %"class.std::chrono::duration", ptr %3, i32 0, i32 0
  %5 = load double, ptr %4, align 8, !tbaa !22
  ret double %5
}

; Function Attrs: mustprogress ssp uwtable
define linkonce_odr void @_ZNSt6chrono8durationIdSt5ratioILl1ELl1000EEEC2IlS1_ILl1ELl1000000000EEvEERKNS0_IT_T0_EE(ptr noundef nonnull align 8 dereferenceable(8) %0, ptr noundef nonnull align 8 dereferenceable(8) %1) unnamed_addr #1 comdat align 2 {
  %3 = alloca ptr, align 8
  %4 = alloca ptr, align 8
  %5 = alloca %"class.std::chrono::duration", align 8
  store ptr %0, ptr %3, align 8, !tbaa !18
  store ptr %1, ptr %4, align 8, !tbaa !20
  %6 = load ptr, ptr %3, align 8
  %7 = getelementptr inbounds nuw %"class.std::chrono::duration", ptr %6, i32 0, i32 0
  call void @llvm.lifetime.start.p0(i64 8, ptr %5) #25
  %8 = load ptr, ptr %4, align 8, !tbaa !20
  %9 = call double @_ZNSt6chrono13duration_castINS_8durationIdSt5ratioILl1ELl1000EEEElS2_ILl1ELl1000000000EEEENSt9enable_ifIXsr13__is_durationIT_EE5valueES7_E4typeERKNS1_IT0_T1_EE(ptr noundef nonnull align 8 dereferenceable(8) %8)
  %10 = getelementptr inbounds nuw %"class.std::chrono::duration", ptr %5, i32 0, i32 0
  store double %9, ptr %10, align 8
  %11 = call noundef double @_ZNKSt6chrono8durationIdSt5ratioILl1ELl1000EEE5countEv(ptr noundef nonnull align 8 dereferenceable(8) %5)
  call void @llvm.lifetime.end.p0(i64 8, ptr %5) #25
  store double %11, ptr %7, align 8, !tbaa !22
  ret void
}

; Function Attrs: mustprogress nounwind ssp uwtable
define linkonce_odr i64 @_ZNKSt6chrono10time_pointINS_3_V212system_clockENS_8durationIlSt5ratioILl1ELl1000000000EEEEE16time_since_epochEv(ptr noundef nonnull align 8 dereferenceable(8) %0) #0 comdat align 2 {
  %2 = alloca %"class.std::chrono::duration.0", align 8
  %3 = alloca ptr, align 8
  store ptr %0, ptr %3, align 8, !tbaa !13
  %4 = load ptr, ptr %3, align 8
  %5 = getelementptr inbounds nuw %"class.std::chrono::time_point", ptr %4, i32 0, i32 0
  call void @llvm.memcpy.p0.p0.i64(ptr align 8 %2, ptr align 8 %5, i64 8, i1 false), !tbaa.struct !15
  %6 = getelementptr inbounds nuw %"class.std::chrono::duration.0", ptr %2, i32 0, i32 0
  %7 = load i64, ptr %6, align 8
  ret i64 %7
}

; Function Attrs: mustprogress nounwind ssp uwtable
define available_externally noundef ptr @_ZNKSt7__cxx1112basic_stringIcSt11char_traitsIcESaIcEE7_M_dataEv(ptr noundef nonnull align 8 dereferenceable(32) %0) #0 align 2 {
  %2 = alloca ptr, align 8
  store ptr %0, ptr %2, align 8, !tbaa !53
  %3 = load ptr, ptr %2, align 8
  %4 = getelementptr inbounds nuw %"class.std::__cxx11::basic_string", ptr %3, i32 0, i32 0
  %5 = getelementptr inbounds nuw %"struct.std::__cxx11::basic_string<char>::_Alloc_hider", ptr %4, i32 0, i32 0
  %6 = load ptr, ptr %5, align 8, !tbaa !190
  ret ptr %6
}

; Function Attrs: mustprogress ssp uwtable
define noundef double @_ZN6open3d7utility5Timer27GetSystemTimeInMillisecondsEv() #1 align 2 {
  %1 = alloca %"class.std::chrono::duration", align 8
  %2 = alloca %"class.std::chrono::duration.0", align 8
  %3 = alloca %"class.std::chrono::time_point", align 8
  call void @llvm.lifetime.start.p0(i64 8, ptr %1) #25
  call void @llvm.lifetime.start.p0(i64 8, ptr %2) #25
  call void @llvm.lifetime.start.p0(i64 8, ptr %3) #25
  %4 = call i64 @_ZNSt6chrono3_V212system_clock3nowEv() #25
  %5 = getelementptr inbounds nuw %"class.std::chrono::time_point", ptr %3, i32 0, i32 0
  %6 = getelementptr inbounds nuw %"class.std::chrono::duration.0", ptr %5, i32 0, i32 0
  store i64 %4, ptr %6, align 8
  %7 = call i64 @_ZNKSt6chrono10time_pointINS_3_V212system_clockENS_8durationIlSt5ratioILl1ELl1000000000EEEEE16time_since_epochEv(ptr noundef nonnull align 8 dereferenceable(8) %3)
  %8 = getelementptr inbounds nuw %"class.std::chrono::duration.0", ptr %2, i32 0, i32 0
  store i64 %7, ptr %8, align 8
  call void @_ZNSt6chrono8durationIdSt5ratioILl1ELl1000EEEC2IlS1_ILl1ELl1000000000EEvEERKNS0_IT_T0_EE(ptr noundef nonnull align 8 dereferenceable(8) %1, ptr noundef nonnull align 8 dereferenceable(8) %2)
  call void @llvm.lifetime.end.p0(i64 8, ptr %3) #25
  call void @llvm.lifetime.end.p0(i64 8, ptr %2) #25
  %9 = call noundef double @_ZNKSt6chrono8durationIdSt5ratioILl1ELl1000EEE5countEv(ptr noundef nonnull align 8 dereferenceable(8) %1)
  call void @llvm.lifetime.end.p0(i64 8, ptr %1) #25
  ret double %9
}

; Function Attrs: mustprogress ssp uwtable
define void @_ZN6open3d7utility5Timer5StartEv(ptr noundef nonnull align 8 dereferenceable(16) %0) #1 align 2 {
  %2 = alloca ptr, align 8
  store ptr %0, ptr %2, align 8, !tbaa !4
  %3 = load ptr, ptr %2, align 8
  %4 = call noundef double @_ZN6open3d7utility5Timer27GetSystemTimeInMillisecondsEv()
  %5 = getelementptr inbounds nuw %"class.open3d::utility::Timer", ptr %3, i32 0, i32 0
  store double %4, ptr %5, align 8, !tbaa !9
  ret void
}

; Function Attrs: mustprogress nounwind ssp uwtable
define available_externally noundef ptr @_ZNKSt7__cxx1112basic_stringIcSt11char_traitsIcESaIcEE5c_strEv(ptr noundef nonnull align 8 dereferenceable(32) %0) #0 align 2 {
  %2 = alloca ptr, align 8
  store ptr %0, ptr %2, align 8, !tbaa !53
  %3 = load ptr, ptr %2, align 8
  %4 = call noundef ptr @_ZNKSt7__cxx1112basic_stringIcSt11char_traitsIcESaIcEE7_M_dataEv(ptr noundef nonnull align 8 dereferenceable(32) %3)
  ret ptr %4
}

; Function Attrs: mustprogress nounwind ssp uwtable
define noundef double @_ZNK6open3d7utility5Timer24GetDurationInMillisecondEv(ptr noundef nonnull align 8 dereferenceable(16) %0) #0 align 2 {
  %2 = alloca ptr, align 8
  store ptr %0, ptr %2, align 8, !tbaa !4
  %3 = load ptr, ptr %2, align 8
  %4 = getelementptr inbounds nuw %"class.open3d::utility::Timer", ptr %3, i32 0, i32 1
  %5 = load double, ptr %4, align 8, !tbaa !12
  %6 = getelementptr inbounds nuw %"class.open3d::utility::Timer", ptr %3, i32 0, i32 0
  %7 = load double, ptr %6, align 8, !tbaa !9
  %8 = fsub double %5, %7
  ret double %8
}

; Function Attrs: mustprogress ssp uwtable
define void @_ZN6open3d7utility5Timer4StopEv(ptr noundef nonnull align 8 dereferenceable(16) %0) #1 align 2 {
  %2 = alloca ptr, align 8
  store ptr %0, ptr %2, align 8, !tbaa !4
  %3 = load ptr, ptr %2, align 8
  %4 = call noundef double @_ZN6open3d7utility5Timer27GetSystemTimeInMillisecondsEv()
  %5 = getelementptr inbounds nuw %"class.open3d::utility::Timer", ptr %3, i32 0, i32 1
  store double %4, ptr %5, align 8, !tbaa !12
  ret void
}

; Function Attrs: mustprogress ssp uwtable
define void @_ZN6open3d7utility8FPSTimer6SignalEv(ptr noundef nonnull align 8 dereferenceable(76) %0) #1 align 2 {
  %2 = alloca ptr, align 8
  %3 = alloca double, align 8
  %4 = alloca ptr, align 8
  %5 = alloca double, align 8
  %6 = alloca double, align 8
  store ptr %0, ptr %2, align 8, !tbaa !758
  %7 = load ptr, ptr %2, align 8
  %8 = getelementptr inbounds nuw %"class.open3d::utility::FPSTimer", ptr %7, i32 0, i32 6
  %9 = load i32, ptr %8, align 4, !tbaa !764
  %10 = add nsw i32 %9, 1
  store i32 %10, ptr %8, align 4, !tbaa !764
  %11 = getelementptr inbounds nuw %"class.open3d::utility::FPSTimer", ptr %7, i32 0, i32 7
  %12 = load i32, ptr %11, align 8, !tbaa !765
  %13 = add nsw i32 %12, 1
  store i32 %13, ptr %11, align 8, !tbaa !765
  call void @_ZN6open3d7utility5Timer4StopEv(ptr noundef nonnull align 8 dereferenceable(16) %7)
  %14 = call noundef double @_ZNK6open3d7utility5Timer24GetDurationInMillisecondEv(ptr noundef nonnull align 8 dereferenceable(16) %7)
  %15 = getelementptr inbounds nuw %"class.open3d::utility::FPSTimer", ptr %7, i32 0, i32 4
  %16 = load double, ptr %15, align 8, !tbaa !762
  %17 = fcmp oge double %14, %16
  br i1 %17, label %24, label %18

18:                                               ; preds = %1
  %19 = getelementptr inbounds nuw %"class.open3d::utility::FPSTimer", ptr %7, i32 0, i32 6
  %20 = load i32, ptr %19, align 4, !tbaa !764
  %21 = getelementptr inbounds nuw %"class.open3d::utility::FPSTimer", ptr %7, i32 0, i32 5
  %22 = load i32, ptr %21, align 8, !tbaa !763
  %23 = icmp sge i32 %20, %22
  br i1 %23, label %24, label %57

24:                                               ; preds = %18, %1
  %25 = getelementptr inbounds nuw %"class.open3d::utility::FPSTimer", ptr %7, i32 0, i32 2
  %26 = load i32, ptr %25, align 8, !tbaa !760
  %27 = icmp eq i32 %26, -1
  br i1 %27, label %28, label %37

28:                                               ; preds = %24
  %29 = getelementptr inbounds nuw %"class.open3d::utility::FPSTimer", ptr %7, i32 0, i32 1
  call void @llvm.lifetime.start.p0(i64 8, ptr %3) #25
  %30 = getelementptr inbounds nuw %"class.open3d::utility::FPSTimer", ptr %7, i32 0, i32 6
  %31 = load i32, ptr %30, align 4, !tbaa !764
  %32 = add nsw i32 %31, 1
  %33 = sitofp i32 %32 to double
  %34 = call noundef double @_ZNK6open3d7utility5Timer24GetDurationInMillisecondEv(ptr noundef nonnull align 8 dereferenceable(16) %7)
  %35 = fdiv double %33, %34
  %36 = fmul double %35, 1.000000e+03
  store double %36, ptr %3, align 8, !tbaa !24
  call void @_ZN6open3d7utility6Logger8LogInfo_IJRNSt7__cxx1112basic_stringIcSt11char_traitsIcESaIcEEEdEEEvPKciSB_SB_DpOT_(ptr noundef @.str, i32 noundef 90, ptr noundef @__PRETTY_FUNCTION__._ZN6open3d7utility8FPSTimer6SignalEv, ptr noundef @.str.50, ptr noundef nonnull align 8 dereferenceable(32) %29, ptr noundef nonnull align 8 dereferenceable(8) %3)
  call void @llvm.lifetime.end.p0(i64 8, ptr %3) #25
  br label %55

37:                                               ; preds = %24
  call void @llvm.lifetime.start.p0(i64 8, ptr %4) #25
  %38 = getelementptr inbounds nuw %"class.open3d::utility::FPSTimer", ptr %7, i32 0, i32 1
  %39 = call noundef ptr @_ZNKSt7__cxx1112basic_stringIcSt11char_traitsIcESaIcEE5c_strEv(ptr noundef nonnull align 8 dereferenceable(32) %38) #25
  store ptr %39, ptr %4, align 8, !tbaa !55
  call void @llvm.lifetime.start.p0(i64 8, ptr %5) #25
  %40 = getelementptr inbounds nuw %"class.open3d::utility::FPSTimer", ptr %7, i32 0, i32 6
  %41 = load i32, ptr %40, align 4, !tbaa !764
  %42 = add nsw i32 %41, 1
  %43 = sitofp i32 %42 to double
  %44 = call noundef double @_ZNK6open3d7utility5Timer24GetDurationInMillisecondEv(ptr noundef nonnull align 8 dereferenceable(16) %7)
  %45 = fdiv double %43, %44
  %46 = fmul double %45, 1.000000e+03
  store double %46, ptr %5, align 8, !tbaa !24
  call void @llvm.lifetime.start.p0(i64 8, ptr %6) #25
  %47 = getelementptr inbounds nuw %"class.open3d::utility::FPSTimer", ptr %7, i32 0, i32 7
  %48 = load i32, ptr %47, align 8, !tbaa !765
  %49 = sitofp i32 %48 to double
  %50 = fmul double %49, 1.000000e+02
  %51 = getelementptr inbounds nuw %"class.open3d::utility::FPSTimer", ptr %7, i32 0, i32 2
  %52 = load i32, ptr %51, align 8, !tbaa !760
  %53 = sitofp i32 %52 to double
  %54 = fdiv double %50, %53
  store double %54, ptr %6, align 8, !tbaa !24
  call void @_ZN6open3d7utility6Logger8LogInfo_IJPKcddEEEvS4_iS4_S4_DpOT_(ptr noundef @.str, i32 noundef 96, ptr noundef @__PRETTY_FUNCTION__._ZN6open3d7utility8FPSTimer6SignalEv, ptr noundef @.str.51, ptr noundef nonnull align 8 dereferenceable(8) %4, ptr noundef nonnull align 8 dereferenceable(8) %5, ptr noundef nonnull align 8 dereferenceable(8) %6)
  call void @llvm.lifetime.end.p0(i64 8, ptr %6) #25
  call void @llvm.lifetime.end.p0(i64 8, ptr %5) #25
  call void @llvm.lifetime.end.p0(i64 8, ptr %4) #25
  br label %55

55:                                               ; preds = %37, %28
  call void @_ZN6open3d7utility5Timer5StartEv(ptr noundef nonnull align 8 dereferenceable(16) %7)
  %56 = getelementptr inbounds nuw %"class.open3d::utility::FPSTimer", ptr %7, i32 0, i32 6
  store i32 0, ptr %56, align 4, !tbaa !764
  br label %57

57:                                               ; preds = %55, %18
  ret void
}