; Function Attrs: mustprogress ssp uwtable
define void @_ZN6open3d7utility8FPSTimer6SignalEv(ptr noundef nonnull align 8 dereferenceable(76) initializes((8, 16)) %0) local_unnamed_addr #11 align 2 {
  %2 = alloca double, align 8
  %3 = alloca ptr, align 8
  %4 = alloca double, align 8
  %5 = alloca double, align 8
  %6 = getelementptr inbounds nuw i8, ptr %0, i64 68
  %7 = load i32, ptr %6, align 4, !tbaa !627
  %8 = add nsw i32 %7, 1
  store i32 %8, ptr %6, align 4, !tbaa !627
  %9 = getelementptr inbounds nuw i8, ptr %0, i64 72
  %10 = load i32, ptr %9, align 8, !tbaa !628
  %11 = add nsw i32 %10, 1
  store i32 %11, ptr %9, align 8, !tbaa !628
  %12 = tail call i64 @_ZNSt6chrono3_V212system_clock3nowEv() #30
  %13 = sitofp i64 %12 to double
  %14 = fdiv double %13, 1.000000e+06
  %15 = getelementptr inbounds nuw i8, ptr %0, i64 8
  store double %14, ptr %15, align 8, !tbaa !9
  %16 = load double, ptr %0, align 8, !tbaa !4
  %17 = fsub double %14, %16
  %18 = getelementptr inbounds nuw i8, ptr %0, i64 56
  %19 = load double, ptr %18, align 8, !tbaa !625
  %20 = fcmp ult double %17, %19
  br i1 %20, label %21, label %25

21:                                               ; preds = %1
  %22 = load i32, ptr %6, align 4, !tbaa !627
  %23 = getelementptr inbounds nuw i8, ptr %0, i64 64
  %24 = load i32, ptr %23, align 8, !tbaa !626
  %.not = icmp slt i32 %22, %24
  br i1 %.not, label %53, label %25

25:                                               ; preds = %21, %1
  %26 = getelementptr inbounds nuw i8, ptr %0, i64 48
  %27 = load i32, ptr %26, align 8, !tbaa !623
  %28 = icmp eq i32 %27, -1
  br i1 %28, label %29, label %36

29:                                               ; preds = %25
  %30 = getelementptr inbounds nuw i8, ptr %0, i64 16
  call void @llvm.lifetime.start.p0(i64 8, ptr nonnull %2) #30
  %31 = load i32, ptr %6, align 4, !tbaa !627
  %32 = add nsw i32 %31, 1
  %33 = sitofp i32 %32 to double
  %34 = fdiv double %33, %17
  %35 = fmul double %34, 1.000000e+03
  store double %35, ptr %2, align 8, !tbaa !20
  call void @_ZN6open3d7utility6Logger8LogInfo_IJRNSt7__cxx1112basic_stringIcSt11char_traitsIcESaIcEEEdEEEvPKciSB_SB_DpOT_(ptr noundef nonnull @.str, i32 noundef 90, ptr noundef nonnull @__PRETTY_FUNCTION__._ZN6open3d7utility8FPSTimer6SignalEv, ptr noundef nonnull @.str.50, ptr noundef nonnull align 8 dereferenceable(32) %30, ptr noundef nonnull align 8 dereferenceable(8) %2)
  call void @llvm.lifetime.end.p0(i64 8, ptr nonnull %2) #30
  br label %49

36:                                               ; preds = %25
  call void @llvm.lifetime.start.p0(i64 8, ptr nonnull %3) #30
  %37 = getelementptr inbounds nuw i8, ptr %0, i64 16
  %38 = load ptr, ptr %37, align 8, !tbaa !24
  store ptr %38, ptr %3, align 8, !tbaa !51
  call void @llvm.lifetime.start.p0(i64 8, ptr nonnull %4) #30
  %39 = load i32, ptr %6, align 4, !tbaa !627
  %40 = add nsw i32 %39, 1
  %41 = sitofp i32 %40 to double
  %42 = fdiv double %41, %17
  %43 = fmul double %42, 1.000000e+03
  store double %43, ptr %4, align 8, !tbaa !20
  call void @llvm.lifetime.start.p0(i64 8, ptr nonnull %5) #30
  %44 = load i32, ptr %9, align 8, !tbaa !628
  %45 = sitofp i32 %44 to double
  %46 = fmul double %45, 1.000000e+02
  %47 = sitofp i32 %27 to double
  %48 = fdiv double %46, %47
  store double %48, ptr %5, align 8, !tbaa !20
  call void @_ZN6open3d7utility6Logger8LogInfo_IJPKcddEEEvS4_iS4_S4_DpOT_(ptr noundef nonnull @.str, i32 noundef 96, ptr noundef nonnull @__PRETTY_FUNCTION__._ZN6open3d7utility8FPSTimer6SignalEv, ptr noundef nonnull @.str.51, ptr noundef nonnull align 8 dereferenceable(8) %3, ptr noundef nonnull align 8 dereferenceable(8) %4, ptr noundef nonnull align 8 dereferenceable(8) %5)
  call void @llvm.lifetime.end.p0(i64 8, ptr nonnull %5) #30
  call void @llvm.lifetime.end.p0(i64 8, ptr nonnull %4) #30
  call void @llvm.lifetime.end.p0(i64 8, ptr nonnull %3) #30
  br label %49

49:                                               ; preds = %36, %29
  %50 = call i64 @_ZNSt6chrono3_V212system_clock3nowEv() #30
  %51 = sitofp i64 %50 to double
  %52 = fdiv double %51, 1.000000e+06
  store double %52, ptr %0, align 8, !tbaa !4
  store i32 0, ptr %6, align 4, !tbaa !627
  br label %53

53:                                               ; preds = %49, %21
  ret void
}